target datalayout = "e-m:e-p270:32:32-p271:32:32-p272:64:64-i64:64-i128:128-f80:128-n8:16:32:64-S128"
target triple = "x86_64-pc-linux-gnu"

%"class.casadi::MX" = type { %"class.casadi::SharedObject" }
%"class.casadi::SharedObject" = type { %"class.casadi::GenericShared" }
%"class.casadi::GenericShared" = type { ptr }
%"class.casadi::UnaryMX" = type <{ %"class.casadi::MXNode", i32, [4 x i8] }>
%"class.casadi::MXNode" = type { %"class.casadi::SharedObjectInternal", i64, %"class.std::vector", %"class.casadi::Sparsity" }
%"class.casadi::SharedObjectInternal" = type { %"class.casadi::GenericSharedInternal", i64 }
%"class.casadi::GenericSharedInternal" = type { ptr, ptr }
%"class.std::vector" = type { %"struct.std::_Vector_base" }
%"struct.std::_Vector_base" = type { %"struct.std::_Vector_base<casadi::MX, std::allocator<casadi::MX>>::_Vector_impl" }
%"struct.std::_Vector_base<casadi::MX, std::allocator<casadi::MX>>::_Vector_impl" = type { %"struct.std::_Vector_base<casadi::MX, std::allocator<casadi::MX>>::_Vector_impl_data" }
%"struct.std::_Vector_base<casadi::MX, std::allocator<casadi::MX>>::_Vector_impl_data" = type { ptr, ptr, ptr }
%"class.casadi::Sparsity" = type { %"class.casadi::SharedObject" }
%"struct.std::_Vector_base.13" = type { %"struct.std::_Vector_base<std::array<casadi::MX, 3>, std::allocator<std::array<casadi::MX, 3>>>::_Vector_impl" }
%"struct.std::_Vector_base<std::array<casadi::MX, 3>, std::allocator<std::array<casadi::MX, 3>>>::_Vector_impl" = type { %"struct.std::_Vector_base<std::array<casadi::MX, 3>, std::allocator<std::array<casadi::MX, 3>>>::_Vector_impl_data" }
%"struct.std::_Vector_base<std::array<casadi::MX, 3>, std::allocator<std::array<casadi::MX, 3>>>::_Vector_impl_data" = type { ptr, ptr, ptr }
%"struct.std::array" = type { [3 x %"class.casadi::MX"] }

; Function Attrs: mustprogress nounwind uwtable
define linkonce_odr hidden noundef ptr @_ZNSt14__array_traitsIN6casadi2MXELm3EE6_S_ptrERA3_KS1_(ptr noundef nonnull align 8 dereferenceable(24) %0) #7 comdat align 2 {
  %2 = alloca ptr, align 8
  store ptr %0, ptr %2, align 8, !tbaa !10
  %3 = load ptr, ptr %2, align 8, !tbaa !10
  %4 = getelementptr inbounds [3 x %"class.casadi::MX"], ptr %3, i64 0, i64 0
  ret ptr %4
}

; Function Attrs: mustprogress nounwind willreturn memory(none) uwtable
define linkonce_odr hidden noundef ptr @_ZNSt5arrayIN6casadi2MXELm3EE4dataEv(ptr noundef nonnull align 8 dereferenceable(24) %0) #8 comdat align 2 {
  %2 = alloca ptr, align 8
  store ptr %0, ptr %2, align 8, !tbaa !68
  %3 = load ptr, ptr %2, align 8
  %4 = getelementptr inbounds nuw %"struct.std::array", ptr %3, i32 0, i32 0
  %5 = call noundef ptr @_ZNSt14__array_traitsIN6casadi2MXELm3EE6_S_ptrERA3_KS1_(ptr noundef nonnull align 8 dereferenceable(24) %4) #3
  ret ptr %5
}

; Function Attrs: mustprogress nounwind uwtable
define linkonce_odr hidden noundef nonnull align 8 dereferenceable(24) ptr @_ZNSt6vectorISt5arrayIN6casadi2MXELm3EESaIS3_EEixEm(ptr noundef nonnull align 8 dereferenceable(24) %0, i64 noundef %1) #7 comdat align 2 {
  %3 = alloca ptr, align 8
  %4 = alloca i64, align 8
  store ptr %0, ptr %3, align 8, !tbaa !54
  store i64 %1, ptr %4, align 8, !tbaa !37
  %5 = load ptr, ptr %3, align 8
  %6 = getelementptr inbounds nuw %"struct.std::_Vector_base.13", ptr %5, i32 0, i32 0
  %7 = getelementptr inbounds nuw %"struct.std::_Vector_base<std::array<casadi::MX, 3>, std::allocator<std::array<casadi::MX, 3>>>::_Vector_impl_data", ptr %6, i32 0, i32 0
  %8 = load ptr, ptr %7, align 8, !tbaa !65
  %9 = load i64, ptr %4, align 8, !tbaa !37
  %10 = getelementptr inbounds nuw %"struct.std::array", ptr %8, i64 %9
  ret ptr %10
}

; Function Attrs: mustprogress nounwind uwtable
define linkonce_odr hidden noundef ptr @_ZNKSt5arrayIN6casadi2MXELm3EE4dataEv(ptr noundef nonnull align 8 dereferenceable(24) %0) #7 comdat align 2 {
  %2 = alloca ptr, align 8
  store ptr %0, ptr %2, align 8, !tbaa !68
  %3 = load ptr, ptr %2, align 8
  %4 = getelementptr inbounds nuw %"struct.std::array", ptr %3, i32 0, i32 0
  %5 = call noundef ptr @_ZNSt14__array_traitsIN6casadi2MXELm3EE6_S_ptrERA3_KS1_(ptr noundef nonnull align 8 dereferenceable(24) %4) #3
  ret ptr %5
}

; Function Attrs: mustprogress nounwind uwtable
define linkonce_odr hidden noundef nonnull align 8 dereferenceable(24) ptr @_ZNKSt6vectorISt5arrayIN6casadi2MXELm3EESaIS3_EEixEm(ptr noundef nonnull align 8 dereferenceable(24) %0, i64 noundef %1) #7 comdat align 2 {
  %3 = alloca ptr, align 8
  %4 = alloca i64, align 8
  store ptr %0, ptr %3, align 8, !tbaa !54
  store i64 %1, ptr %4, align 8, !tbaa !37
  %5 = load ptr, ptr %3, align 8
  %6 = getelementptr inbounds nuw %"struct.std::_Vector_base.13", ptr %5, i32 0, i32 0
  %7 = getelementptr inbounds nuw %"struct.std::_Vector_base<std::array<casadi::MX, 3>, std::allocator<std::array<casadi::MX, 3>>>::_Vector_impl_data", ptr %6, i32 0, i32 0
  %8 = load ptr, ptr %7, align 8, !tbaa !65
  %9 = load i64, ptr %4, align 8, !tbaa !37
  %10 = getelementptr inbounds nuw %"struct.std::array", ptr %8, i64 %9
  ret ptr %10
}

; Function Attrs: mustprogress uwtable
define void @_ZNK6casadi7UnaryMX11eval_linearERKSt6vectorISt5arrayINS_2MXELm3EESaIS4_EERS6_(ptr noundef nonnull align 8 dereferenceable(68) %0, ptr noundef nonnull align 8 dereferenceable(24) %1, ptr noundef nonnull align 8 dereferenceable(24) %2) unnamed_addr #4 align 2 personality ptr @__gxx_personality_v0 {
  %4 = alloca ptr, align 8
  %5 = alloca ptr, align 8
  %6 = alloca ptr, align 8
  %7 = alloca [3 x %"class.casadi::MX"], align 16
  %8 = alloca ptr, align 8
  %9 = alloca i32, align 4
  store ptr %0, ptr %4, align 8, !tbaa !3
  store ptr %1, ptr %5, align 8, !tbaa !54
  store ptr %2, ptr %6, align 8, !tbaa !54
  %10 = load ptr, ptr %4, align 8
  call void @llvm.lifetime.start.p0(i64 24, ptr %7) #3
  %11 = getelementptr inbounds [3 x %"class.casadi::MX"], ptr %7, i32 0, i32 0
  %12 = getelementptr inbounds %"class.casadi::MX", ptr %11, i64 3
  br label %13

13:                                               ; preds = %15, %3
  %14 = phi ptr [ %11, %3 ], [ %16, %15 ]
  invoke void @_ZN6casadi2MXC1Ev(ptr noundef nonnull align 8 dereferenceable(8) %14)
          to label %15 unwind label %37

15:                                               ; preds = %13
  %16 = getelementptr inbounds %"class.casadi::MX", ptr %14, i64 1
  %17 = icmp eq ptr %16, %12
  br i1 %17, label %18, label %13

18:                                               ; preds = %15
  %19 = getelementptr inbounds nuw %"class.casadi::UnaryMX", ptr %10, i32 0, i32 1
  %20 = load i32, ptr %19, align 8, !tbaa !14
  %21 = trunc i32 %20 to i8
  %22 = load ptr, ptr %5, align 8, !tbaa !54
  %23 = call noundef nonnull align 8 dereferenceable(24) ptr @_ZNKSt6vectorISt5arrayIN6casadi2MXELm3EESaIS3_EEixEm(ptr noundef nonnull align 8 dereferenceable(24) %22, i64 noundef 0) #3
  %24 = call noundef ptr @_ZNKSt5arrayIN6casadi2MXELm3EE4dataEv(ptr noundef nonnull align 8 dereferenceable(24) %23) #3
  %25 = getelementptr inbounds [3 x %"class.casadi::MX"], ptr %7, i64 0, i64 0
  %26 = load ptr, ptr %6, align 8, !tbaa !54
  %27 = call noundef nonnull align 8 dereferenceable(24) ptr @_ZNSt6vectorISt5arrayIN6casadi2MXELm3EESaIS3_EEixEm(ptr noundef nonnull align 8 dereferenceable(24) %26, i64 noundef 0) #3
  %28 = call noundef ptr @_ZNSt5arrayIN6casadi2MXELm3EE4dataEv(ptr noundef nonnull align 8 dereferenceable(24) %27) #19
  invoke void @_ZN6casadi11casadi_mathINS_2MXEE10fun_linearEhPKS1_S4_PS1_(i8 noundef zeroext %21, ptr noundef %24, ptr noundef %25, ptr noundef %28)
          to label %29 unwind label %47

29:                                               ; preds = %18
  %30 = getelementptr inbounds [3 x %"class.casadi::MX"], ptr %7, i32 0, i32 0
  %31 = getelementptr inbounds %"class.casadi::MX", ptr %30, i64 3
  br label %32

32:                                               ; preds = %32, %29
  %33 = phi ptr [ %31, %29 ], [ %34, %32 ]
  %34 = getelementptr inbounds %"class.casadi::MX", ptr %33, i64 -1
  call void @_ZN6casadi2MXD1Ev(ptr noundef nonnull align 8 dereferenceable(8) %34) #3
  %35 = icmp eq ptr %34, %30
  br i1 %35, label %36, label %32

36:                                               ; preds = %32
  call void @llvm.lifetime.end.p0(i64 24, ptr %7) #3
  ret void

37:                                               ; preds = %13
  %38 = landingpad { ptr, i32 }
          cleanup
  %39 = extractvalue { ptr, i32 } %38, 0
  store ptr %39, ptr %8, align 8
  %40 = extractvalue { ptr, i32 } %38, 1
  store i32 %40, ptr %9, align 4
  %41 = icmp eq ptr %11, %14
  br i1 %41, label %46, label %42

42:                                               ; preds = %42, %37
  %43 = phi ptr [ %14, %37 ], [ %44, %42 ]
  %44 = getelementptr inbounds %"class.casadi::MX", ptr %43, i64 -1
  call void @_ZN6casadi2MXD1Ev(ptr noundef nonnull align 8 dereferenceable(8) %44) #3
  %45 = icmp eq ptr %44, %11
  br i1 %45, label %46, label %42

46:                                               ; preds = %42, %37
  br label %58

47:                                               ; preds = %18
  %48 = landingpad { ptr, i32 }
          cleanup
  %49 = extractvalue { ptr, i32 } %48, 0
  store ptr %49, ptr %8, align 8
  %50 = extractvalue { ptr, i32 } %48, 1
  store i32 %50, ptr %9, align 4
  %51 = getelementptr inbounds [3 x %"class.casadi::MX"], ptr %7, i32 0, i32 0
  %52 = getelementptr inbounds %"class.casadi::MX", ptr %51, i64 3
  br label %53

53:                                               ; preds = %53, %47
  %54 = phi ptr [ %52, %47 ], [ %55, %53 ]
  %55 = getelementptr inbounds %"class.casadi::MX", ptr %54, i64 -1
  call void @_ZN6casadi2MXD1Ev(ptr noundef nonnull align 8 dereferenceable(8) %55) #3
  %56 = icmp eq ptr %55, %51
  br i1 %56, label %57, label %53

57:                                               ; preds = %53
  br label %58

58:                                               ; preds = %57, %46
  call void @llvm.lifetime.end.p0(i64 24, ptr %7) #3
  br label %59

59:                                               ; preds = %58
  %60 = load ptr, ptr %8, align 8
  %61 = load i32, ptr %9, align 4
  %62 = insertvalue { ptr, i32 } poison, ptr %60, 0
  %63 = insertvalue { ptr, i32 } %62, i32 %61, 1
  resume { ptr, i32 } %63
}