; Function Attrs: mustprogress uwtable
define void @_ZNK6casadi7UnaryMX11eval_linearERKSt6vectorISt5arrayINS_2MXELm3EESaIS4_EERS6_(ptr noundef nonnull readonly align 8 captures(none) dereferenceable(68) %0, ptr noundef nonnull readonly align 8 captures(none) dereferenceable(24) %1, ptr noundef nonnull readonly align 8 captures(none) dereferenceable(24) %2) unnamed_addr #3 align 2 personality ptr @__gxx_personality_v0 {
  %4 = alloca [3 x %"class.casadi::MX"], align 16
  call void @llvm.lifetime.start.p0(i64 24, ptr nonnull %4) #21
  %5 = getelementptr inbounds nuw i8, ptr %4, i64 24
  br label %6

6:                                                ; preds = %7, %3
  %.idx = phi i64 [ 0, %3 ], [ %.add, %7 ]
  %.ptr = getelementptr inbounds nuw i8, ptr %4, i64 %.idx
  invoke void @_ZN6casadi2MXC1Ev(ptr noundef nonnull align 8 dereferenceable(8) %.ptr)
          to label %7 unwind label %19

7:                                                ; preds = %6
  %.add = add nuw nsw i64 %.idx, 8
  %8 = icmp eq i64 %.add, 24
  br i1 %8, label %9, label %6

9:                                                ; preds = %7
  %10 = getelementptr inbounds nuw i8, ptr %0, i64 64
  %11 = load i32, ptr %10, align 8, !tbaa !6
  %12 = trunc i32 %11 to i8
  %13 = load ptr, ptr %1, align 8, !tbaa !112
  %14 = load ptr, ptr %2, align 8, !tbaa !112
  invoke void @_ZN6casadi11casadi_mathINS_2MXEE10fun_linearEhPKS1_S4_PS1_(i8 noundef zeroext %12, ptr noundef %13, ptr noundef nonnull %4, ptr noundef %14)
          to label %.preheader unwind label %25

.preheader:                                       ; preds = %9, %.preheader
  %15 = phi ptr [ %16, %.preheader ], [ %5, %9 ]
  %16 = getelementptr inbounds i8, ptr %15, i64 -8
  call void @_ZN6casadi2MXD1Ev(ptr noundef nonnull align 8 dereferenceable(8) %16) #21
  %17 = icmp eq ptr %16, %4
  br i1 %17, label %18, label %.preheader

18:                                               ; preds = %.preheader
  call void @llvm.lifetime.end.p0(i64 24, ptr nonnull %4) #21
  ret void

19:                                               ; preds = %6
  %20 = landingpad { ptr, i32 }
          cleanup
  %21 = icmp samesign eq i64 %.idx, 0
  br i1 %21, label %.loopexit, label %.preheader11

.preheader11:                                     ; preds = %19, %.preheader11
  %22 = phi ptr [ %23, %.preheader11 ], [ %.ptr, %19 ]
  %23 = getelementptr inbounds i8, ptr %22, i64 -8
  call void @_ZN6casadi2MXD1Ev(ptr noundef nonnull align 8 dereferenceable(8) %23) #21
  %24 = icmp eq ptr %23, %4
  br i1 %24, label %.loopexit, label %.preheader11

25:                                               ; preds = %9
  %26 = landingpad { ptr, i32 }
          cleanup
  br label %27

27:                                               ; preds = %27, %25
  %28 = phi ptr [ %5, %25 ], [ %29, %27 ]
  %29 = getelementptr inbounds i8, ptr %28, i64 -8
  call void @_ZN6casadi2MXD1Ev(ptr noundef nonnull align 8 dereferenceable(8) %29) #21
  %30 = icmp eq ptr %29, %4
  br i1 %30, label %.loopexit, label %27

.loopexit:                                        ; preds = %.preheader11, %27, %19
  %.pn = phi { ptr, i32 } [ %20, %19 ], [ %26, %27 ], [ %20, %.preheader11 ]
  call void @llvm.lifetime.end.p0(i64 24, ptr nonnull %4) #21
  resume { ptr, i32 } %.pn
}